; Function Attrs: mustprogress nofree norecurse nosync nounwind willreturn memory(argmem: read) uwtable
define dso_local noundef i32 @_ZN4llvm13SchedBoundary21getLatencyStallCyclesEPNS_5SUnitE(ptr noundef nonnull readonly align 8 captures(none) dereferenceable(712) %0, ptr noundef readonly captures(none) %1) local_unnamed_addr #7 align 2 {
  %3 = getelementptr inbounds nuw i8, ptr %1, i64 248
  %4 = load i16, ptr %3, align 8
  %5 = and i16 %4, 16384
  %.not = icmp eq i16 %5, 0
  br i1 %.not, label %13, label %6

6:                                                ; preds = %2
  %7 = getelementptr inbounds nuw i8, ptr %0, i64 24
  %8 = load i32, ptr %7, align 8
  %9 = icmp eq i32 %8, 1
  %.in.v = select i1 %9, i64 232, i64 236
  %.in = getelementptr inbounds nuw i8, ptr %1, i64 %.in.v
  %10 = load i32, ptr %.in, align 4
  %11 = getelementptr inbounds nuw i8, ptr %0, i64 164
  %12 = load i32, ptr %11, align 4
  %spec.select = tail call i32 @llvm.usub.sat.i32(i32 %10, i32 %12)
  br label %13

13:                                               ; preds = %6, %2
  %.0 = phi i32 [ 0, %2 ], [ %spec.select, %6 ]
  ret i32 %.0
}